; ModuleID = '44/394.c'
source_filename = "44/394.c"
target datalayout = "e-m:e-p270:32:32-p271:32:32-p272:64:64-i64:64-f80:128-n8:16:32:64-S128"
target triple = "x86_64-pc-linux-gnu"

@.str = private unnamed_addr constant [3 x i8] c"%d\00", align 1
@.str.1 = private unnamed_addr constant [4 x i8] c"%d\0A\00", align 1

; Function Attrs: noinline nounwind uwtable
define dso_local i32 @reverse(i32 %0) #0 {
  %2 = alloca i32, align 4
  %3 = alloca i32, align 4
  %4 = alloca i32, align 4
  %5 = alloca i32, align 4
  %6 = alloca i32, align 4
  %7 = alloca i32, align 4
  %8 = alloca i32, align 4
  store i32 %0, i32* %2, align 4
  store i32 0, i32* %3, align 4
  store i32 0, i32* %4, align 4
  %9 = load i32, i32* %2, align 4
  %10 = icmp sle i32 %9, 0
  br i1 %10, label %11, label %14

11:                                               ; preds = %1
  store i32 -1, i32* %7, align 4
  %12 = load i32, i32* %2, align 4
  %13 = sub nsw i32 0, %12
  store i32 %13, i32* %2, align 4
  br label %15

14:                                               ; preds = %1
  store i32 1, i32* %7, align 4
  br label %15

15:                                               ; preds = %14, %11
  %16 = load i32, i32* %2, align 4
  store i32 %16, i32* %8, align 4
  br label %17

17:                                               ; preds = %21, %15
  %18 = load i32, i32* %2, align 4
  %19 = sdiv i32 %18, 10
  %20 = icmp sge i32 %19, 1
  br i1 %20, label %21, label %26

21:                                               ; preds = %17
  %22 = load i32, i32* %4, align 4
  %23 = add nsw i32 %22, 1
  store i32 %23, i32* %4, align 4
  %24 = load i32, i32* %2, align 4
  %25 = sdiv i32 %24, 10
  store i32 %25, i32* %2, align 4
  br label %17

26:                                               ; preds = %17
  %27 = load i32, i32* %8, align 4
  store i32 %27, i32* %2, align 4
  store i32 0, i32* %6, align 4
  br label %28

28:                                               ; preds = %47, %26
  %29 = load i32, i32* %6, align 4
  %30 = load i32, i32* %4, align 4
  %31 = icmp sle i32 %29, %30
  br i1 %31, label %32, label %50

32:                                               ; preds = %28
  %33 = load i32, i32* %4, align 4
  %34 = load i32, i32* %6, align 4
  %35 = sub nsw i32 %33, %34
  %36 = sitofp i32 %35 to double
  %37 = call double @pow(double 1.000000e+01, double %36) #3
  %38 = fptosi double %37 to i32
  store i32 %38, i32* %5, align 4
  %39 = load i32, i32* %3, align 4
  %40 = load i32, i32* %2, align 4
  %41 = srem i32 %40, 10
  %42 = load i32, i32* %5, align 4
  %43 = mul nsw i32 %41, %42
  %44 = add nsw i32 %39, %43
  store i32 %44, i32* %3, align 4
  %45 = load i32, i32* %2, align 4
  %46 = sdiv i32 %45, 10
  store i32 %46, i32* %2, align 4
  br label %47

47:                                               ; preds = %32
  %48 = load i32, i32* %6, align 4
  %49 = add nsw i32 %48, 1
  store i32 %49, i32* %6, align 4
  br label %28

50:                                               ; preds = %28
  %51 = load i32, i32* %7, align 4
  %52 = load i32, i32* %3, align 4
  %53 = mul nsw i32 %51, %52
  ret i32 %53
}

; Function Attrs: nounwind
declare dso_local double @pow(double, double) #1

; Function Attrs: noinline nounwind uwtable
define dso_local i32 @main() #0 {
  %1 = alloca i32, align 4
  %2 = alloca i32, align 4
  %3 = alloca i32, align 4
  store i32 0, i32* %1, align 4
  store i32 0, i32* %3, align 4
  br label %4

4:                                                ; preds = %12, %0
  %5 = load i32, i32* %3, align 4
  %6 = icmp slt i32 %5, 6
  br i1 %6, label %7, label %15

7:                                                ; preds = %4
  %8 = call i32 (i8*, ...) @__isoc99_scanf(i8* getelementptr inbounds ([3 x i8], [3 x i8]* @.str, i64 0, i64 0), i32* %2)
  %9 = load i32, i32* %2, align 4
  %10 = call i32 @reverse(i32 %9)
  %11 = call i32 (i8*, ...) @printf(i8* getelementptr inbounds ([4 x i8], [4 x i8]* @.str.1, i64 0, i64 0), i32 %10)
  br label %12

12:                                               ; preds = %7
  %13 = load i32, i32* %3, align 4
  %14 = add nsw i32 %13, 1
  store i32 %14, i32* %3, align 4
  br label %4

15:                                               ; preds = %4
  ret i32 0
}

declare dso_local i32 @__isoc99_scanf(i8*, ...) #2

declare dso_local i32 @printf(i8*, ...) #2


!llvm.module.flags = !{!0}
!llvm.ident = !{!1}

!0 = !{i32 1, !"wchar_size", i32 4}
!1 = !{!"clang version 10.0.0-4ubuntu1 "}
